target datalayout = "e-m:e-p270:32:32-p271:32:32-p272:64:64-i64:64-i128:128-f80:128-n8:16:32:64-S128"
target triple = "x86_64-pc-linux-gnu"

%struct._lv_imagebutton_t = type { %struct._lv_obj_t, [6 x %struct._lv_imagebutton_src_info_t], [6 x %struct._lv_imagebutton_src_info_t], [6 x %struct._lv_imagebutton_src_info_t] }
%struct._lv_obj_t = type { ptr, ptr, ptr, ptr, ptr, %struct.lv_area_t, i32, i16, i16 }
%struct.lv_area_t = type { i32, i32, i32, i32 }
%struct._lv_imagebutton_src_info_t = type { ptr, %struct.lv_image_header_t }
%struct.lv_image_header_t = type <{ i64, i32 }>

; Function Attrs: inlinehint nounwind uwtable
define internal void @lv_memzero(ptr noundef %0, i64 noundef %1) #3 {
  %3 = alloca ptr, align 8
  %4 = alloca i64, align 8
  store ptr %0, ptr %3, align 8, !tbaa !3
  store i64 %1, ptr %4, align 8, !tbaa !18
  %5 = load ptr, ptr %3, align 8, !tbaa !3
  %6 = load i64, ptr %4, align 8, !tbaa !18
  call void @lv_memset(ptr noundef %5, i8 noundef zeroext 0, i64 noundef %6)
  ret void
}

; Function Attrs: nounwind uwtable
define internal void @lv_imagebutton_constructor(ptr noundef %0, ptr noundef %1) #0 {
  %3 = alloca ptr, align 8
  %4 = alloca ptr, align 8
  %5 = alloca ptr, align 8
  store ptr %0, ptr %3, align 8, !tbaa !3
  store ptr %1, ptr %4, align 8, !tbaa !3
  call void @llvm.lifetime.start.p0(i64 8, ptr %5) #5
  %6 = load ptr, ptr %4, align 8, !tbaa !3
  store ptr %6, ptr %5, align 8, !tbaa !3
  %7 = load ptr, ptr %5, align 8, !tbaa !3
  %8 = getelementptr inbounds nuw %struct._lv_imagebutton_t, ptr %7, i32 0, i32 1
  call void @lv_memzero(ptr noundef %8, i64 noundef 144)
  %9 = load ptr, ptr %5, align 8, !tbaa !3
  %10 = getelementptr inbounds nuw %struct._lv_imagebutton_t, ptr %9, i32 0, i32 2
  call void @lv_memzero(ptr noundef %10, i64 noundef 144)
  %11 = load ptr, ptr %5, align 8, !tbaa !3
  %12 = getelementptr inbounds nuw %struct._lv_imagebutton_t, ptr %11, i32 0, i32 3
  call void @lv_memzero(ptr noundef %12, i64 noundef 144)
  call void @llvm.lifetime.end.p0(i64 8, ptr %5) #5
  ret void
}