; Function Attrs: nounwind uwtable
define internal void @lv_imagebutton_constructor(ptr nocapture readnone %0, ptr noundef %1) #0 {
  %3 = getelementptr inbounds nuw i8, ptr %1, i64 64
  tail call void @lv_memset(ptr noundef nonnull %3, i8 noundef zeroext 0, i64 noundef 144) #6
  %4 = getelementptr inbounds nuw i8, ptr %1, i64 208
  tail call void @lv_memset(ptr noundef nonnull %4, i8 noundef zeroext 0, i64 noundef 144) #6
  %5 = getelementptr inbounds nuw i8, ptr %1, i64 352
  tail call void @lv_memset(ptr noundef nonnull %5, i8 noundef zeroext 0, i64 noundef 144) #6
  ret void
}